target datalayout = "e-m:e-p270:32:32-p271:32:32-p272:64:64-i64:64-i128:128-f80:128-n8:16:32:64-S128"
target triple = "x86_64-pc-linux-gnu"

@hf_cigi3_celestial_sphere_control_hour = internal global i32 0, align 4
@hf_cigi3_celestial_sphere_control_minute = internal global i32 0, align 4
@hf_cigi3_celestial_sphere_control_ephemeris_enable = internal global i32 0, align 4
@hf_cigi3_celestial_sphere_control_sun_enable = internal global i32 0, align 4
@hf_cigi3_celestial_sphere_control_moon_enable = internal global i32 0, align 4
@hf_cigi3_celestial_sphere_control_star_enable = internal global i32 0, align 4
@hf_cigi3_celestial_sphere_control_date_time_valid = internal global i32 0, align 4
@hf_cigi3_celestial_sphere_control_star_intensity = internal global i32 0, align 4
@hf_cigi4_celestial_sphere_control_enable_flags = internal global i32 0, align 4
@hf_cigi4_celestial_sphere_control_seconds = internal global i32 0, align 4
@hf_cigi4_celestial_sphere_control_date = internal global i32 0, align 4
@ett_cigi4_celestial_sphere_control_flags = internal global i32 0, align 4
@cigi_byte_order = internal global i32 0, align 4

; Function Attrs: null_pointer_is_valid sspstrong uwtable
define internal i32 @cigi4_add_celestial_sphere_control(ptr noundef %0, ptr noundef %1, ptr noundef %2, ptr noundef %3) #0 {
  %5 = alloca ptr, align 8
  %6 = alloca ptr, align 8
  %7 = alloca ptr, align 8
  %8 = alloca ptr, align 8
  %9 = alloca i32, align 4
  %10 = alloca ptr, align 8
  %11 = alloca ptr, align 8
  store ptr %0, ptr %5, align 8
  store ptr %1, ptr %6, align 8
  store ptr %2, ptr %7, align 8
  store ptr %3, ptr %8, align 8
  call void @llvm.lifetime.start.p0(i64 4, ptr %9) #5
  store i32 0, ptr %9, align 4
  call void @llvm.lifetime.start.p0(i64 8, ptr %10) #5
  call void @llvm.lifetime.start.p0(i64 8, ptr %11) #5
  %12 = load ptr, ptr %7, align 8
  %13 = load i32, ptr @hf_cigi4_celestial_sphere_control_enable_flags, align 4
  %14 = load ptr, ptr %5, align 8
  %15 = load i32, ptr %9, align 4
  %16 = load i32, ptr @cigi_byte_order, align 4
  %17 = call ptr @proto_tree_add_item(ptr noundef %12, i32 noundef %13, ptr noundef %14, i32 noundef %15, i32 noundef 1, i32 noundef %16)
  store ptr %17, ptr %11, align 8
  %18 = load ptr, ptr %11, align 8
  %19 = load i32, ptr @ett_cigi4_celestial_sphere_control_flags, align 4
  %20 = call ptr @proto_item_add_subtree(ptr noundef %18, i32 noundef %19)
  store ptr %20, ptr %10, align 8
  %21 = load ptr, ptr %10, align 8
  %22 = load i32, ptr @hf_cigi3_celestial_sphere_control_ephemeris_enable, align 4
  %23 = load ptr, ptr %5, align 8
  %24 = load i32, ptr %9, align 4
  %25 = load i32, ptr @cigi_byte_order, align 4
  %26 = call ptr @proto_tree_add_item(ptr noundef %21, i32 noundef %22, ptr noundef %23, i32 noundef %24, i32 noundef 1, i32 noundef %25)
  %27 = load ptr, ptr %10, align 8
  %28 = load i32, ptr @hf_cigi3_celestial_sphere_control_sun_enable, align 4
  %29 = load ptr, ptr %5, align 8
  %30 = load i32, ptr %9, align 4
  %31 = load i32, ptr @cigi_byte_order, align 4
  %32 = call ptr @proto_tree_add_item(ptr noundef %27, i32 noundef %28, ptr noundef %29, i32 noundef %30, i32 noundef 1, i32 noundef %31)
  %33 = load ptr, ptr %10, align 8
  %34 = load i32, ptr @hf_cigi3_celestial_sphere_control_moon_enable, align 4
  %35 = load ptr, ptr %5, align 8
  %36 = load i32, ptr %9, align 4
  %37 = load i32, ptr @cigi_byte_order, align 4
  %38 = call ptr @proto_tree_add_item(ptr noundef %33, i32 noundef %34, ptr noundef %35, i32 noundef %36, i32 noundef 1, i32 noundef %37)
  %39 = load ptr, ptr %10, align 8
  %40 = load i32, ptr @hf_cigi3_celestial_sphere_control_star_enable, align 4
  %41 = load ptr, ptr %5, align 8
  %42 = load i32, ptr %9, align 4
  %43 = load i32, ptr @cigi_byte_order, align 4
  %44 = call ptr @proto_tree_add_item(ptr noundef %39, i32 noundef %40, ptr noundef %41, i32 noundef %42, i32 noundef 1, i32 noundef %43)
  %45 = load ptr, ptr %10, align 8
  %46 = load i32, ptr @hf_cigi3_celestial_sphere_control_date_time_valid, align 4
  %47 = load ptr, ptr %5, align 8
  %48 = load i32, ptr %9, align 4
  %49 = load i32, ptr @cigi_byte_order, align 4
  %50 = call ptr @proto_tree_add_item(ptr noundef %45, i32 noundef %46, ptr noundef %47, i32 noundef %48, i32 noundef 1, i32 noundef %49)
  %51 = load i32, ptr %9, align 4
  %52 = add i32 %51, 2
  store i32 %52, ptr %9, align 4
  %53 = load ptr, ptr %7, align 8
  %54 = load i32, ptr @hf_cigi3_celestial_sphere_control_hour, align 4
  %55 = load ptr, ptr %5, align 8
  %56 = load i32, ptr %9, align 4
  %57 = load i32, ptr @cigi_byte_order, align 4
  %58 = call ptr @proto_tree_add_item(ptr noundef %53, i32 noundef %54, ptr noundef %55, i32 noundef %56, i32 noundef 1, i32 noundef %57)
  %59 = load i32, ptr %9, align 4
  %60 = add i32 %59, 1
  store i32 %60, ptr %9, align 4
  %61 = load ptr, ptr %7, align 8
  %62 = load i32, ptr @hf_cigi3_celestial_sphere_control_minute, align 4
  %63 = load ptr, ptr %5, align 8
  %64 = load i32, ptr %9, align 4
  %65 = load i32, ptr @cigi_byte_order, align 4
  %66 = call ptr @proto_tree_add_item(ptr noundef %61, i32 noundef %62, ptr noundef %63, i32 noundef %64, i32 noundef 1, i32 noundef %65)
  %67 = load i32, ptr %9, align 4
  %68 = add i32 %67, 1
  store i32 %68, ptr %9, align 4
  %69 = load ptr, ptr %7, align 8
  %70 = load i32, ptr @hf_cigi4_celestial_sphere_control_seconds, align 4
  %71 = load ptr, ptr %5, align 8
  %72 = load i32, ptr %9, align 4
  %73 = load i32, ptr @cigi_byte_order, align 4
  %74 = call ptr @proto_tree_add_item(ptr noundef %69, i32 noundef %70, ptr noundef %71, i32 noundef %72, i32 noundef 4, i32 noundef %73)
  %75 = load i32, ptr %9, align 4
  %76 = add i32 %75, 4
  store i32 %76, ptr %9, align 4
  %77 = load ptr, ptr %7, align 8
  %78 = load i32, ptr @hf_cigi4_celestial_sphere_control_date, align 4
  %79 = load ptr, ptr %5, align 8
  %80 = load i32, ptr %9, align 4
  %81 = load i32, ptr @cigi_byte_order, align 4
  %82 = call ptr @proto_tree_add_item(ptr noundef %77, i32 noundef %78, ptr noundef %79, i32 noundef %80, i32 noundef 4, i32 noundef %81)
  %83 = load i32, ptr %9, align 4
  %84 = add i32 %83, 4
  store i32 %84, ptr %9, align 4
  %85 = load ptr, ptr %7, align 8
  %86 = load i32, ptr @hf_cigi3_celestial_sphere_control_star_intensity, align 4
  %87 = load ptr, ptr %5, align 8
  %88 = load i32, ptr %9, align 4
  %89 = load i32, ptr @cigi_byte_order, align 4
  %90 = call ptr @proto_tree_add_item(ptr noundef %85, i32 noundef %86, ptr noundef %87, i32 noundef %88, i32 noundef 4, i32 noundef %89)
  %91 = load i32, ptr %9, align 4
  %92 = add i32 %91, 4
  store i32 %92, ptr %9, align 4
  %93 = load i32, ptr %9, align 4
  %94 = add i32 %93, 4
  store i32 %94, ptr %9, align 4
  %95 = load i32, ptr %9, align 4
  call void @llvm.lifetime.end.p0(i64 8, ptr %11) #5
  call void @llvm.lifetime.end.p0(i64 8, ptr %10) #5
  call void @llvm.lifetime.end.p0(i64 4, ptr %9) #5
  ret i32 %95
}