; Function Attrs: null_pointer_is_valid sspstrong uwtable
define internal noundef i32 @cigi4_add_celestial_sphere_control(ptr noundef %0, ptr readnone captures(none) %1, ptr noundef %2, ptr readnone captures(none) %3) #0 {
  %5 = load i32, ptr @hf_cigi4_celestial_sphere_control_enable_flags, align 4
  %.b50 = load i1, ptr @cigi_byte_order, align 4
  %6 = select i1 %.b50, i32 -2147483648, i32 0
  %7 = tail call ptr @proto_tree_add_item(ptr noundef %2, i32 noundef %5, ptr noundef %0, i32 noundef 0, i32 noundef 1, i32 noundef %6)
  %8 = load i32, ptr @ett_cigi4_celestial_sphere_control_flags, align 4
  %9 = tail call ptr @proto_item_add_subtree(ptr noundef %7, i32 noundef %8)
  %10 = load i32, ptr @hf_cigi3_celestial_sphere_control_ephemeris_enable, align 4
  %.b49 = load i1, ptr @cigi_byte_order, align 4
  %11 = select i1 %.b49, i32 -2147483648, i32 0
  %12 = tail call ptr @proto_tree_add_item(ptr noundef %9, i32 noundef %10, ptr noundef %0, i32 noundef 0, i32 noundef 1, i32 noundef %11)
  %13 = load i32, ptr @hf_cigi3_celestial_sphere_control_sun_enable, align 4
  %.b48 = load i1, ptr @cigi_byte_order, align 4
  %14 = select i1 %.b48, i32 -2147483648, i32 0
  %15 = tail call ptr @proto_tree_add_item(ptr noundef %9, i32 noundef %13, ptr noundef %0, i32 noundef 0, i32 noundef 1, i32 noundef %14)
  %16 = load i32, ptr @hf_cigi3_celestial_sphere_control_moon_enable, align 4
  %.b47 = load i1, ptr @cigi_byte_order, align 4
  %17 = select i1 %.b47, i32 -2147483648, i32 0
  %18 = tail call ptr @proto_tree_add_item(ptr noundef %9, i32 noundef %16, ptr noundef %0, i32 noundef 0, i32 noundef 1, i32 noundef %17)
  %19 = load i32, ptr @hf_cigi3_celestial_sphere_control_star_enable, align 4
  %.b46 = load i1, ptr @cigi_byte_order, align 4
  %20 = select i1 %.b46, i32 -2147483648, i32 0
  %21 = tail call ptr @proto_tree_add_item(ptr noundef %9, i32 noundef %19, ptr noundef %0, i32 noundef 0, i32 noundef 1, i32 noundef %20)
  %22 = load i32, ptr @hf_cigi3_celestial_sphere_control_date_time_valid, align 4
  %.b45 = load i1, ptr @cigi_byte_order, align 4
  %23 = select i1 %.b45, i32 -2147483648, i32 0
  %24 = tail call ptr @proto_tree_add_item(ptr noundef %9, i32 noundef %22, ptr noundef %0, i32 noundef 0, i32 noundef 1, i32 noundef %23)
  %25 = load i32, ptr @hf_cigi3_celestial_sphere_control_hour, align 4
  %.b44 = load i1, ptr @cigi_byte_order, align 4
  %26 = select i1 %.b44, i32 -2147483648, i32 0
  %27 = tail call ptr @proto_tree_add_item(ptr noundef %2, i32 noundef %25, ptr noundef %0, i32 noundef 2, i32 noundef 1, i32 noundef %26)
  %28 = load i32, ptr @hf_cigi3_celestial_sphere_control_minute, align 4
  %.b43 = load i1, ptr @cigi_byte_order, align 4
  %29 = select i1 %.b43, i32 -2147483648, i32 0
  %30 = tail call ptr @proto_tree_add_item(ptr noundef %2, i32 noundef %28, ptr noundef %0, i32 noundef 3, i32 noundef 1, i32 noundef %29)
  %31 = load i32, ptr @hf_cigi4_celestial_sphere_control_seconds, align 4
  %.b42 = load i1, ptr @cigi_byte_order, align 4
  %32 = select i1 %.b42, i32 -2147483648, i32 0
  %33 = tail call ptr @proto_tree_add_item(ptr noundef %2, i32 noundef %31, ptr noundef %0, i32 noundef 4, i32 noundef 4, i32 noundef %32)
  %34 = load i32, ptr @hf_cigi4_celestial_sphere_control_date, align 4
  %.b41 = load i1, ptr @cigi_byte_order, align 4
  %35 = select i1 %.b41, i32 -2147483648, i32 0
  %36 = tail call ptr @proto_tree_add_item(ptr noundef %2, i32 noundef %34, ptr noundef %0, i32 noundef 8, i32 noundef 4, i32 noundef %35)
  %37 = load i32, ptr @hf_cigi3_celestial_sphere_control_star_intensity, align 4
  %.b = load i1, ptr @cigi_byte_order, align 4
  %38 = select i1 %.b, i32 -2147483648, i32 0
  %39 = tail call ptr @proto_tree_add_item(ptr noundef %2, i32 noundef %37, ptr noundef %0, i32 noundef 12, i32 noundef 4, i32 noundef %38)
  ret i32 20
}